target datalayout = "e-m:e-p270:32:32-p271:32:32-p272:64:64-i64:64-i128:128-f80:128-n8:16:32:64-S128"
target triple = "x86_64-pc-linux-gnu"

%"class.lean::object_compactor" = type { %"class.std::unordered_map", %"class.std::unique_ptr", %"class.std::vector", %"class.std::vector", ptr, ptr, ptr, ptr }
%"class.std::unordered_map" = type { %"class.std::_Hashtable" }
%"class.std::_Hashtable" = type { ptr, i64, %"struct.std::__detail::_Hash_node_base", i64, %"struct.std::__detail::_Prime_rehash_policy", ptr }
%"struct.std::__detail::_Hash_node_base" = type { ptr }
%"struct.std::__detail::_Prime_rehash_policy" = type { float, i64 }
%"class.std::unique_ptr" = type { %"struct.std::__uniq_ptr_data" }
%"struct.std::__uniq_ptr_data" = type { %"class.std::__uniq_ptr_impl" }
%"class.std::__uniq_ptr_impl" = type { %"class.std::tuple" }
%"class.std::tuple" = type { %"struct.std::_Tuple_impl" }
%"struct.std::_Tuple_impl" = type { %"struct.std::_Head_base.3" }
%"struct.std::_Head_base.3" = type { ptr }
%"class.std::vector" = type { %"struct.std::_Vector_base" }
%"struct.std::_Vector_base" = type { %"struct.std::_Vector_base<lean_object *, std::allocator<lean_object *>>::_Vector_impl" }
%"struct.std::_Vector_base<lean_object *, std::allocator<lean_object *>>::_Vector_impl" = type { %"struct.std::_Vector_base<lean_object *, std::allocator<lean_object *>>::_Vector_impl_data" }
%"struct.std::_Vector_base<lean_object *, std::allocator<lean_object *>>::_Vector_impl_data" = type { ptr, ptr, ptr }

; Function Attrs: mustprogress nounwind uwtable
define linkonce_odr hidden noundef i64 @_ZNK4lean16object_compactor4sizeEv(ptr noundef nonnull align 8 dereferenceable(144) %0) #1 comdat align 2 {
  %2 = alloca ptr, align 8
  store ptr %0, ptr %2, align 8, !tbaa !3
  %3 = load ptr, ptr %2, align 8
  %4 = getelementptr inbounds nuw %"class.lean::object_compactor", ptr %3, i32 0, i32 6
  %5 = load ptr, ptr %4, align 8, !tbaa !32
  %6 = getelementptr inbounds nuw %"class.lean::object_compactor", ptr %3, i32 0, i32 5
  %7 = load ptr, ptr %6, align 8, !tbaa !31
  %8 = ptrtoint ptr %5 to i64
  %9 = ptrtoint ptr %7 to i64
  %10 = sub i64 %8, %9
  ret i64 %10
}

; Function Attrs: mustprogress nounwind uwtable
define linkonce_odr hidden noundef i64 @_ZNK4lean16object_compactor8capacityEv(ptr noundef nonnull align 8 dereferenceable(144) %0) #1 comdat align 2 {
  %2 = alloca ptr, align 8
  store ptr %0, ptr %2, align 8, !tbaa !3
  %3 = load ptr, ptr %2, align 8
  %4 = getelementptr inbounds nuw %"class.lean::object_compactor", ptr %3, i32 0, i32 7
  %5 = load ptr, ptr %4, align 8, !tbaa !33
  %6 = getelementptr inbounds nuw %"class.lean::object_compactor", ptr %3, i32 0, i32 5
  %7 = load ptr, ptr %6, align 8, !tbaa !31
  %8 = ptrtoint ptr %5 to i64
  %9 = ptrtoint ptr %7 to i64
  %10 = sub i64 %8, %9
  ret i64 %10
}

; Function Attrs: mustprogress uwtable
define noundef ptr @_ZN4lean16object_compactor5allocEm(ptr noundef nonnull align 8 dereferenceable(144) %0, i64 noundef %1) #0 align 2 {
  %3 = alloca ptr, align 8
  %4 = alloca i64, align 8
  %5 = alloca i64, align 8
  %6 = alloca i64, align 8
  %7 = alloca ptr, align 8
  %8 = alloca ptr, align 8
  store ptr %0, ptr %3, align 8, !tbaa !3
  store i64 %1, ptr %4, align 8, !tbaa !45
  %9 = load ptr, ptr %3, align 8
  call void @llvm.lifetime.start.p0(i64 8, ptr %5) #19
  %10 = load i64, ptr %4, align 8, !tbaa !45
  %11 = urem i64 %10, 8
  store i64 %11, ptr %5, align 8, !tbaa !45
  %12 = load i64, ptr %5, align 8, !tbaa !45
  %13 = icmp ne i64 %12, 0
  br i1 %13, label %14, label %19

14:                                               ; preds = %2
  %15 = load i64, ptr %4, align 8, !tbaa !45
  %16 = add i64 %15, 8
  %17 = load i64, ptr %5, align 8, !tbaa !45
  %18 = sub i64 %16, %17
  store i64 %18, ptr %4, align 8, !tbaa !45
  br label %19

19:                                               ; preds = %14, %2
  br label %20

20:                                               ; preds = %28, %19
  %21 = getelementptr inbounds nuw %"class.lean::object_compactor", ptr %9, i32 0, i32 6
  %22 = load ptr, ptr %21, align 8, !tbaa !32
  %23 = load i64, ptr %4, align 8, !tbaa !45
  %24 = getelementptr inbounds nuw i8, ptr %22, i64 %23
  %25 = getelementptr inbounds nuw %"class.lean::object_compactor", ptr %9, i32 0, i32 7
  %26 = load ptr, ptr %25, align 8, !tbaa !33
  %27 = icmp ugt ptr %24, %26
  br i1 %27, label %28, label %49

28:                                               ; preds = %20
  call void @llvm.lifetime.start.p0(i64 8, ptr %6) #19
  %29 = call noundef i64 @_ZNK4lean16object_compactor8capacityEv(ptr noundef nonnull align 8 dereferenceable(144) %9)
  %30 = mul i64 %29, 2
  store i64 %30, ptr %6, align 8, !tbaa !45
  call void @llvm.lifetime.start.p0(i64 8, ptr %7) #19
  %31 = load i64, ptr %6, align 8, !tbaa !45
  %32 = call noalias ptr @malloc(i64 noundef %31) #21
  store ptr %32, ptr %7, align 8, !tbaa !8
  %33 = load ptr, ptr %7, align 8, !tbaa !8
  %34 = getelementptr inbounds nuw %"class.lean::object_compactor", ptr %9, i32 0, i32 5
  %35 = load ptr, ptr %34, align 8, !tbaa !31
  %36 = call noundef i64 @_ZNK4lean16object_compactor4sizeEv(ptr noundef nonnull align 8 dereferenceable(144) %9)
  call void @llvm.memcpy.p0.p0.i64(ptr align 1 %33, ptr align 1 %35, i64 %36, i1 false)
  %37 = load ptr, ptr %7, align 8, !tbaa !8
  %38 = call noundef i64 @_ZNK4lean16object_compactor4sizeEv(ptr noundef nonnull align 8 dereferenceable(144) %9)
  %39 = getelementptr inbounds nuw i8, ptr %37, i64 %38
  %40 = getelementptr inbounds nuw %"class.lean::object_compactor", ptr %9, i32 0, i32 6
  store ptr %39, ptr %40, align 8, !tbaa !32
  %41 = load ptr, ptr %7, align 8, !tbaa !8
  %42 = load i64, ptr %6, align 8, !tbaa !45
  %43 = getelementptr inbounds nuw i8, ptr %41, i64 %42
  %44 = getelementptr inbounds nuw %"class.lean::object_compactor", ptr %9, i32 0, i32 7
  store ptr %43, ptr %44, align 8, !tbaa !33
  %45 = getelementptr inbounds nuw %"class.lean::object_compactor", ptr %9, i32 0, i32 5
  %46 = load ptr, ptr %45, align 8, !tbaa !31
  call void @free(ptr noundef %46) #19
  %47 = load ptr, ptr %7, align 8, !tbaa !8
  %48 = getelementptr inbounds nuw %"class.lean::object_compactor", ptr %9, i32 0, i32 5
  store ptr %47, ptr %48, align 8, !tbaa !31
  call void @llvm.lifetime.end.p0(i64 8, ptr %7) #19
  call void @llvm.lifetime.end.p0(i64 8, ptr %6) #19
  br label %20, !llvm.loop !46

49:                                               ; preds = %20
  call void @llvm.lifetime.start.p0(i64 8, ptr %8) #19
  %50 = getelementptr inbounds nuw %"class.lean::object_compactor", ptr %9, i32 0, i32 6
  %51 = load ptr, ptr %50, align 8, !tbaa !32
  store ptr %51, ptr %8, align 8, !tbaa !8
  %52 = load ptr, ptr %8, align 8, !tbaa !8
  %53 = load i64, ptr %4, align 8, !tbaa !45
  call void @llvm.memset.p0.i64(ptr align 1 %52, i8 0, i64 %53, i1 false)
  %54 = getelementptr inbounds nuw %"class.lean::object_compactor", ptr %9, i32 0, i32 6
  %55 = load ptr, ptr %54, align 8, !tbaa !32
  %56 = load i64, ptr %4, align 8, !tbaa !45
  %57 = getelementptr inbounds nuw i8, ptr %55, i64 %56
  %58 = getelementptr inbounds nuw %"class.lean::object_compactor", ptr %9, i32 0, i32 6
  store ptr %57, ptr %58, align 8, !tbaa !32
  %59 = load ptr, ptr %8, align 8, !tbaa !8
  call void @llvm.lifetime.end.p0(i64 8, ptr %8) #19
  call void @llvm.lifetime.end.p0(i64 8, ptr %5) #19
  ret ptr %59
}