; Function Attrs: mustprogress nounwind uwtable
define noundef ptr @_ZN4lean16object_compactor5allocEm(ptr noundef nonnull align 8 captures(none) dereferenceable(144) %0, i64 noundef %1) local_unnamed_addr #5 align 2 {
  %.biased = add i64 %1, 7
  %.0 = and i64 %.biased, -8
  %3 = getelementptr inbounds nuw i8, ptr %0, i64 128
  %4 = getelementptr inbounds nuw i8, ptr %0, i64 136
  %5 = load ptr, ptr %3, align 8, !tbaa !46
  %6 = getelementptr inbounds nuw i8, ptr %5, i64 %.0
  %7 = load ptr, ptr %4, align 8, !tbaa !47
  %8 = icmp ugt ptr %6, %7
  br i1 %8, label %.lr.ph, label %._crit_edge

.lr.ph:                                           ; preds = %2
  %9 = getelementptr inbounds nuw i8, ptr %0, i64 120
  %.pre = load ptr, ptr %9, align 8, !tbaa !45
  br label %10

10:                                               ; preds = %.lr.ph, %10
  %11 = phi ptr [ %.pre, %.lr.ph ], [ %18, %10 ]
  %12 = phi ptr [ %7, %.lr.ph ], [ %25, %10 ]
  %13 = phi ptr [ %5, %.lr.ph ], [ %23, %10 ]
  %14 = ptrtoint ptr %12 to i64
  %15 = ptrtoint ptr %11 to i64
  %16 = sub i64 %14, %15
  %17 = shl i64 %16, 1
  %18 = tail call noalias ptr @malloc(i64 noundef %17) #24
  %19 = ptrtoint ptr %13 to i64
  %20 = sub i64 %19, %15
  tail call void @llvm.memcpy.p0.p0.i64(ptr align 1 %18, ptr align 1 %11, i64 %20, i1 false)
  %21 = getelementptr inbounds nuw i8, ptr %18, i64 %20
  store ptr %21, ptr %3, align 8, !tbaa !46
  %22 = getelementptr inbounds nuw i8, ptr %18, i64 %17
  store ptr %22, ptr %4, align 8, !tbaa !47
  tail call void @free(ptr noundef %11) #22
  store ptr %18, ptr %9, align 8, !tbaa !45
  %23 = load ptr, ptr %3, align 8, !tbaa !46
  %24 = getelementptr inbounds nuw i8, ptr %23, i64 %.0
  %25 = load ptr, ptr %4, align 8, !tbaa !47
  %26 = icmp ugt ptr %24, %25
  br i1 %26, label %10, label %._crit_edge, !llvm.loop !56

._crit_edge:                                      ; preds = %10, %2
  %.lcssa = phi ptr [ %5, %2 ], [ %23, %10 ]
  tail call void @llvm.memset.p0.i64(ptr align 1 %.lcssa, i8 0, i64 %.0, i1 false)
  %27 = load ptr, ptr %3, align 8, !tbaa !46
  %28 = getelementptr inbounds nuw i8, ptr %27, i64 %.0
  store ptr %28, ptr %3, align 8, !tbaa !46
  ret ptr %.lcssa
}